target datalayout = "e-m:e-p270:32:32-p271:32:32-p272:64:64-i64:64-i128:128-f80:128-n8:16:32:64-S128"
target triple = "x86_64-unknown-linux-gnu"

%"class.smt::eq_justification" = type { ptr }
%"class.smt::enode" = type { ptr, ptr, ptr, ptr, i32, i32, i32, i16, i32, i8, i8, %class.ptr_vector, %class.id_var_list, %"struct.smt::trans_justification", %class.approx_set, %class.approx_set, [0 x ptr] }
%class.ptr_vector = type { %class.vector }
%class.vector = type { ptr }
%class.id_var_list = type { i32, ptr }
%"struct.smt::trans_justification" = type { ptr, %"class.smt::eq_justification" }
%class.approx_set = type { %class.approx_set_tpl }
%class.approx_set_tpl = type { i64 }

; Function Attrs: mustprogress nounwind uwtable
define linkonce_odr hidden noundef i32 @_ZNK3smt5enode14get_generationEv(ptr noundef nonnull align 8 dereferenceable(112) %this) #4 comdat align 2 {
entry:
  %this.addr = alloca ptr, align 8
  store ptr %this, ptr %this.addr, align 8
  %this1 = load ptr, ptr %this.addr, align 8
  %m_generation = getelementptr inbounds %"class.smt::enode", ptr %this1, i32 0, i32 5
  %0 = load i32, ptr %m_generation, align 4
  ret i32 %0
}

; Function Attrs: mustprogress uwtable
define hidden noundef i32 @_ZN3smt18get_max_generationEjPKPNS_5enodeE(i32 noundef %num_enodes, ptr noundef %enodes) #5 {
entry:
  %num_enodes.addr = alloca i32, align 4
  %enodes.addr = alloca ptr, align 8
  %max = alloca i32, align 4
  %i = alloca i32, align 4
  %curr = alloca i32, align 4
  store i32 %num_enodes, ptr %num_enodes.addr, align 4
  store ptr %enodes, ptr %enodes.addr, align 8
  store i32 0, ptr %max, align 4
  store i32 0, ptr %i, align 4
  br label %for.cond

for.cond:                                         ; preds = %for.inc, %entry
  %0 = load i32, ptr %i, align 4
  %1 = load i32, ptr %num_enodes.addr, align 4
  %cmp = icmp ult i32 %0, %1
  br i1 %cmp, label %for.body, label %for.end

for.body:                                         ; preds = %for.cond
  %2 = load ptr, ptr %enodes.addr, align 8
  %3 = load i32, ptr %i, align 4
  %idxprom = zext i32 %3 to i64
  %arrayidx = getelementptr inbounds ptr, ptr %2, i64 %idxprom
  %4 = load ptr, ptr %arrayidx, align 8
  %call = call noundef i32 @_ZNK3smt5enode14get_generationEv(ptr noundef nonnull align 8 dereferenceable(112) %4)
  store i32 %call, ptr %curr, align 4
  %5 = load i32, ptr %curr, align 4
  %6 = load i32, ptr %max, align 4
  %cmp1 = icmp ugt i32 %5, %6
  br i1 %cmp1, label %if.then, label %if.end

if.then:                                          ; preds = %for.body
  %7 = load i32, ptr %curr, align 4
  store i32 %7, ptr %max, align 4
  br label %if.end

if.end:                                           ; preds = %if.then, %for.body
  br label %for.inc

for.inc:                                          ; preds = %if.end
  %8 = load i32, ptr %i, align 4
  %inc = add i32 %8, 1
  store i32 %inc, ptr %i, align 4
  br label %for.cond, !llvm.loop !14

for.end:                                          ; preds = %for.cond
  %9 = load i32, ptr %max, align 4
  ret i32 %9
}