; Function Attrs: mustprogress nofree norecurse nosync nounwind willreturn memory(read, inaccessiblemem: none) uwtable
define hidden noundef i32 @_ZN3smt18get_max_generationEjPKPNS_5enodeE(i32 noundef %num_enodes, ptr nocapture noundef readonly %enodes) local_unnamed_addr #6 {
entry:
  %cmp5.not = icmp eq i32 %num_enodes, 0
  br i1 %cmp5.not, label %for.end, label %for.body.preheader

for.body.preheader:                               ; preds = %entry
  %wide.trip.count = zext i32 %num_enodes to i64
  br label %for.body

for.body:                                         ; preds = %for.body.preheader, %for.body
  %indvars.iv = phi i64 [ 0, %for.body.preheader ], [ %indvars.iv.next, %for.body ]
  %max.07 = phi i32 [ 0, %for.body.preheader ], [ %spec.select, %for.body ]
  %arrayidx = getelementptr inbounds ptr, ptr %enodes, i64 %indvars.iv
  %0 = load ptr, ptr %arrayidx, align 8
  %m_generation.i = getelementptr inbounds i8, ptr %0, i64 36
  %1 = load i32, ptr %m_generation.i, align 4
  %spec.select = tail call i32 @llvm.umax.i32(i32 %1, i32 %max.07)
  %indvars.iv.next = add nuw nsw i64 %indvars.iv, 1
  %exitcond.not = icmp eq i64 %indvars.iv.next, %wide.trip.count
  br i1 %exitcond.not, label %for.end, label %for.body, !llvm.loop !14

for.end:                                          ; preds = %for.body, %entry
  %max.0.lcssa = phi i32 [ 0, %entry ], [ %spec.select, %for.body ]
  ret i32 %max.0.lcssa
}